target datalayout = "e-m:e-p270:32:32-p271:32:32-p272:64:64-i64:64-i128:128-f80:128-n8:16:32:64-S128"
target triple = "x86_64-pc-linux-gnu"

%struct._object = type { %union.anon, ptr }
%union.anon = type { i64 }
%struct.PyDateTime_CAPI = type { ptr, ptr, ptr, ptr, ptr, ptr, ptr, ptr, ptr, ptr, ptr, ptr, ptr, ptr, ptr }

@_Py_NoneStruct = external global %struct._object, align 8
@PyDateTimeAPI = internal global ptr null, align 8
@.str.30 = private unnamed_addr constant [7 x i8] c"piiiii\00", align 1

; Function Attrs: nounwind uwtable
define internal ptr @get_time_fromtimeandfold(ptr noundef %0, ptr noundef %1) #0 {
  %3 = alloca ptr, align 8
  %4 = alloca ptr, align 8
  %5 = alloca ptr, align 8
  %6 = alloca ptr, align 8
  %7 = alloca i32, align 4
  %8 = alloca i32, align 4
  %9 = alloca i32, align 4
  %10 = alloca i32, align 4
  %11 = alloca i32, align 4
  %12 = alloca i32, align 4
  %13 = alloca i32, align 4
  store ptr %0, ptr %4, align 8, !tbaa !3
  store ptr %1, ptr %5, align 8, !tbaa !3
  call void @llvm.lifetime.start.p0(i64 8, ptr %6) #6
  store ptr null, ptr %6, align 8, !tbaa !3
  call void @llvm.lifetime.start.p0(i64 4, ptr %7) #6
  call void @llvm.lifetime.start.p0(i64 4, ptr %8) #6
  call void @llvm.lifetime.start.p0(i64 4, ptr %9) #6
  call void @llvm.lifetime.start.p0(i64 4, ptr %10) #6
  call void @llvm.lifetime.start.p0(i64 4, ptr %11) #6
  call void @llvm.lifetime.start.p0(i64 4, ptr %12) #6
  %14 = load ptr, ptr %5, align 8, !tbaa !3
  %15 = call i32 (ptr, ptr, ...) @PyArg_ParseTuple(ptr noundef %14, ptr noundef @.str.30, ptr noundef %7, ptr noundef %8, ptr noundef %9, ptr noundef %10, ptr noundef %11, ptr noundef %12)
  %16 = icmp ne i32 %15, 0
  br i1 %16, label %18, label %17

17:                                               ; preds = %2
  store ptr null, ptr %3, align 8
  store i32 1, ptr %13, align 4
  br label %49

18:                                               ; preds = %2
  %19 = load i32, ptr %7, align 4, !tbaa !9
  %20 = icmp ne i32 %19, 0
  br i1 %20, label %21, label %34

21:                                               ; preds = %18
  %22 = load ptr, ptr @PyDateTimeAPI, align 8, !tbaa !24
  %23 = getelementptr inbounds nuw %struct.PyDateTime_CAPI, ptr %22, i32 0, i32 14
  %24 = load ptr, ptr %23, align 8, !tbaa !38
  %25 = load i32, ptr %8, align 4, !tbaa !9
  %26 = load i32, ptr %9, align 4, !tbaa !9
  %27 = load i32, ptr %10, align 4, !tbaa !9
  %28 = load i32, ptr %11, align 4, !tbaa !9
  %29 = load i32, ptr %12, align 4, !tbaa !9
  %30 = load ptr, ptr @PyDateTimeAPI, align 8, !tbaa !24
  %31 = getelementptr inbounds nuw %struct.PyDateTime_CAPI, ptr %30, i32 0, i32 2
  %32 = load ptr, ptr %31, align 8, !tbaa !29
  %33 = call ptr %24(i32 noundef %25, i32 noundef %26, i32 noundef %27, i32 noundef %28, ptr noundef @_Py_NoneStruct, i32 noundef %29, ptr noundef %32)
  store ptr %33, ptr %6, align 8, !tbaa !3
  br label %47

34:                                               ; preds = %18
  %35 = load ptr, ptr @PyDateTimeAPI, align 8, !tbaa !24
  %36 = getelementptr inbounds nuw %struct.PyDateTime_CAPI, ptr %35, i32 0, i32 14
  %37 = load ptr, ptr %36, align 8, !tbaa !38
  %38 = load i32, ptr %8, align 4, !tbaa !9
  %39 = load i32, ptr %9, align 4, !tbaa !9
  %40 = load i32, ptr %10, align 4, !tbaa !9
  %41 = load i32, ptr %11, align 4, !tbaa !9
  %42 = load i32, ptr %12, align 4, !tbaa !9
  %43 = load ptr, ptr @PyDateTimeAPI, align 8, !tbaa !24
  %44 = getelementptr inbounds nuw %struct.PyDateTime_CAPI, ptr %43, i32 0, i32 2
  %45 = load ptr, ptr %44, align 8, !tbaa !29
  %46 = call ptr %37(i32 noundef %38, i32 noundef %39, i32 noundef %40, i32 noundef %41, ptr noundef @_Py_NoneStruct, i32 noundef %42, ptr noundef %45)
  store ptr %46, ptr %6, align 8, !tbaa !3
  br label %47

47:                                               ; preds = %34, %21
  %48 = load ptr, ptr %6, align 8, !tbaa !3
  store ptr %48, ptr %3, align 8
  store i32 1, ptr %13, align 4
  br label %49

49:                                               ; preds = %47, %17
  call void @llvm.lifetime.end.p0(i64 4, ptr %12) #6
  call void @llvm.lifetime.end.p0(i64 4, ptr %11) #6
  call void @llvm.lifetime.end.p0(i64 4, ptr %10) #6
  call void @llvm.lifetime.end.p0(i64 4, ptr %9) #6
  call void @llvm.lifetime.end.p0(i64 4, ptr %8) #6
  call void @llvm.lifetime.end.p0(i64 4, ptr %7) #6
  call void @llvm.lifetime.end.p0(i64 8, ptr %6) #6
  %50 = load ptr, ptr %3, align 8
  ret ptr %50
}