; Function Attrs: nounwind uwtable
define internal ptr @get_time_fromtimeandfold(ptr readnone captures(none) %0, ptr noundef %1) #0 {
  %3 = alloca i32, align 4
  %4 = alloca i32, align 4
  %5 = alloca i32, align 4
  %6 = alloca i32, align 4
  %7 = alloca i32, align 4
  %8 = alloca i32, align 4
  call void @llvm.lifetime.start.p0(i64 4, ptr nonnull %3) #4
  call void @llvm.lifetime.start.p0(i64 4, ptr nonnull %4) #4
  call void @llvm.lifetime.start.p0(i64 4, ptr nonnull %5) #4
  call void @llvm.lifetime.start.p0(i64 4, ptr nonnull %6) #4
  call void @llvm.lifetime.start.p0(i64 4, ptr nonnull %7) #4
  call void @llvm.lifetime.start.p0(i64 4, ptr nonnull %8) #4
  %9 = call i32 (ptr, ptr, ...) @PyArg_ParseTuple(ptr noundef %1, ptr noundef nonnull @.str.30, ptr noundef nonnull %3, ptr noundef nonnull %4, ptr noundef nonnull %5, ptr noundef nonnull %6, ptr noundef nonnull %7, ptr noundef nonnull %8) #4
  %.not = icmp eq i32 %9, 0
  br i1 %.not, label %22, label %10

10:                                               ; preds = %2
  %11 = load ptr, ptr @PyDateTimeAPI, align 8, !tbaa !24
  %12 = getelementptr inbounds nuw i8, ptr %11, i64 112
  %13 = load ptr, ptr %12, align 8, !tbaa !39
  %14 = load i32, ptr %4, align 4, !tbaa !22
  %15 = load i32, ptr %5, align 4, !tbaa !22
  %16 = load i32, ptr %6, align 4, !tbaa !22
  %17 = load i32, ptr %7, align 4, !tbaa !22
  %18 = load i32, ptr %8, align 4, !tbaa !22
  %19 = getelementptr inbounds nuw i8, ptr %11, i64 16
  %20 = load ptr, ptr %19, align 8, !tbaa !30
  %21 = call ptr %13(i32 noundef %14, i32 noundef %15, i32 noundef %16, i32 noundef %17, ptr noundef nonnull @_Py_NoneStruct, i32 noundef %18, ptr noundef %20) #4
  br label %22

22:                                               ; preds = %10, %2
  %.03 = phi ptr [ null, %2 ], [ %21, %10 ]
  call void @llvm.lifetime.end.p0(i64 4, ptr nonnull %8) #4
  call void @llvm.lifetime.end.p0(i64 4, ptr nonnull %7) #4
  call void @llvm.lifetime.end.p0(i64 4, ptr nonnull %6) #4
  call void @llvm.lifetime.end.p0(i64 4, ptr nonnull %5) #4
  call void @llvm.lifetime.end.p0(i64 4, ptr nonnull %4) #4
  call void @llvm.lifetime.end.p0(i64 4, ptr nonnull %3) #4
  ret ptr %.03
}